
fpga_program.elf:     file format elf32-littleriscv


Disassembly of section .text:

8000c000 <_start>:
8000c000:	4f40006f          	j	8000c4f4 <main>

8000c004 <kputs>:
8000c004:	00054683          	lbu	x13,0(x10)
8000c008:	02068063          	beqz	x13,8000c028 <kputs+0x24>
8000c00c:	10013737          	lui	x14,0x10013
8000c010:	00072783          	lw	x15,0(x14) # 10013000 <_start-0x6fff9000>
8000c014:	fe07cee3          	bltz	x15,8000c010 <kputs+0xc>
8000c018:	00d72023          	sw	x13,0(x14)
8000c01c:	00150513          	addi	x10,x10,1
8000c020:	00054683          	lbu	x13,0(x10)
8000c024:	fe0696e3          	bnez	x13,8000c010 <kputs+0xc>
8000c028:	02058663          	beqz	x11,8000c054 <kputs+0x50>
8000c02c:	10013737          	lui	x14,0x10013
8000c030:	00072783          	lw	x15,0(x14) # 10013000 <_start-0x6fff9000>
8000c034:	fe07cee3          	bltz	x15,8000c030 <kputs+0x2c>
8000c038:	00d00793          	li	x15,13
8000c03c:	00f72023          	sw	x15,0(x14)
8000c040:	10013737          	lui	x14,0x10013
8000c044:	00072783          	lw	x15,0(x14) # 10013000 <_start-0x6fff9000>
8000c048:	fe07cee3          	bltz	x15,8000c044 <kputs+0x40>
8000c04c:	00a00793          	li	x15,10
8000c050:	00f72023          	sw	x15,0(x14)
8000c054:	00008067          	ret

8000c058 <reg_write8>:
8000c058:	00b50023          	sb	x11,0(x10)
8000c05c:	00008067          	ret

8000c060 <reg_read8>:
8000c060:	00054503          	lbu	x10,0(x10)
8000c064:	00008067          	ret

8000c068 <waitForVsync>:
8000c068:	ff010113          	addi	x2,x2,-16
8000c06c:	00812423          	sw	x8,8(x2)
8000c070:	00002437          	lui	x8,0x2
8000c074:	00112623          	sw	x1,12(x2)
8000c078:	00d40413          	addi	x8,x8,13 # 200d <_start-0x80009ff3>
8000c07c:	00040513          	mv	x10,x8
8000c080:	fe1ff0ef          	jal	x1,8000c060 <reg_read8>
8000c084:	fe050ce3          	beqz	x10,8000c07c <waitForVsync+0x14>
8000c088:	00c12083          	lw	x1,12(x2)
8000c08c:	00812403          	lw	x8,8(x2)
8000c090:	01010113          	addi	x2,x2,16
8000c094:	00008067          	ret

8000c098 <waitForPCLKRisingEdge>:
8000c098:	ff010113          	addi	x2,x2,-16
8000c09c:	00812423          	sw	x8,8(x2)
8000c0a0:	00002437          	lui	x8,0x2
8000c0a4:	00112623          	sw	x1,12(x2)
8000c0a8:	00e40413          	addi	x8,x8,14 # 200e <_start-0x80009ff2>
8000c0ac:	00040513          	mv	x10,x8
8000c0b0:	fb1ff0ef          	jal	x1,8000c060 <reg_read8>
8000c0b4:	fe051ce3          	bnez	x10,8000c0ac <waitForPCLKRisingEdge+0x14>
8000c0b8:	00002437          	lui	x8,0x2
8000c0bc:	00e40413          	addi	x8,x8,14 # 200e <_start-0x80009ff2>
8000c0c0:	00040513          	mv	x10,x8
8000c0c4:	f9dff0ef          	jal	x1,8000c060 <reg_read8>
8000c0c8:	fe050ce3          	beqz	x10,8000c0c0 <waitForPCLKRisingEdge+0x28>
8000c0cc:	00c12083          	lw	x1,12(x2)
8000c0d0:	00812403          	lw	x8,8(x2)
8000c0d4:	01010113          	addi	x2,x2,16
8000c0d8:	00008067          	ret

8000c0dc <processFrameOLD>:
8000c0dc:	ec010113          	addi	x2,x2,-320
8000c0e0:	100137b7          	lui	x15,0x10013
8000c0e4:	0007a703          	lw	x14,0(x15) # 10013000 <_start-0x6fff9000>
8000c0e8:	fe074ee3          	bltz	x14,8000c0e4 <processFrameOLD+0x8>
8000c0ec:	0007a023          	sw	x0,0(x15)
8000c0f0:	07800313          	li	x6,120
8000c0f4:	14010813          	addi	x16,x2,320
8000c0f8:	100136b7          	lui	x13,0x10013
8000c0fc:	00002737          	lui	x14,0x2
8000c100:	13f00e13          	li	x28,319
8000c104:	14000893          	li	x17,320
8000c108:	00010023          	sb	x0,0(x2)
8000c10c:	00110613          	addi	x12,x2,1
8000c110:	00400513          	li	x10,4
8000c114:	00000593          	li	x11,0
8000c118:	08050263          	beqz	x10,8000c19c <processFrameOLD+0xc0>
8000c11c:	fff50513          	addi	x10,x10,-1
8000c120:	0ff57513          	andi	x10,x10,255
8000c124:	00e74783          	lbu	x15,14(x14) # 200e <_start-0x80009ff2>
8000c128:	0017f793          	andi	x15,x15,1
8000c12c:	fe079ce3          	bnez	x15,8000c124 <processFrameOLD+0x48>
8000c130:	00e74783          	lbu	x15,14(x14)
8000c134:	0017f793          	andi	x15,x15,1
8000c138:	fe078ce3          	beqz	x15,8000c130 <processFrameOLD+0x54>
8000c13c:	00c74783          	lbu	x15,12(x14)
8000c140:	00160613          	addi	x12,x12,1
8000c144:	fef60fa3          	sb	x15,-1(x12)
8000c148:	fcc818e3          	bne	x16,x12,8000c118 <processFrameOLD+0x3c>
8000c14c:	00b10533          	add	x10,x2,x11
8000c150:	02be6a63          	bltu	x28,x11,8000c184 <processFrameOLD+0xa8>
8000c154:	0015f793          	andi	x15,x11,1
8000c158:	00054603          	lbu	x12,0(x10)
8000c15c:	08078e63          	beqz	x15,8000c1f8 <processFrameOLD+0x11c>
8000c160:	02166613          	ori	x12,x12,33
8000c164:	0006a783          	lw	x15,0(x13) # 10013000 <_start-0x6fff9000>
8000c168:	fe07cee3          	bltz	x15,8000c164 <processFrameOLD+0x88>
8000c16c:	00158593          	addi	x11,x11,1
8000c170:	01059593          	slli	x11,x11,0x10
8000c174:	00c6a023          	sw	x12,0(x13)
8000c178:	0105d593          	srli	x11,x11,0x10
8000c17c:	00150513          	addi	x10,x10,1
8000c180:	fd159ae3          	bne	x11,x17,8000c154 <processFrameOLD+0x78>
8000c184:	fff30313          	addi	x6,x6,-1
8000c188:	01031313          	slli	x6,x6,0x10
8000c18c:	01035313          	srli	x6,x6,0x10
8000c190:	f6031ce3          	bnez	x6,8000c108 <processFrameOLD+0x2c>
8000c194:	14010113          	addi	x2,x2,320
8000c198:	00008067          	ret
8000c19c:	14010513          	addi	x10,x2,320
8000c1a0:	00b50533          	add	x10,x10,x11
8000c1a4:	0015f793          	andi	x15,x11,1
8000c1a8:	ec054503          	lbu	x10,-320(x10)
8000c1ac:	02078463          	beqz	x15,8000c1d4 <processFrameOLD+0xf8>
8000c1b0:	02156513          	ori	x10,x10,33
8000c1b4:	0006a783          	lw	x15,0(x13)
8000c1b8:	fe07cee3          	bltz	x15,8000c1b4 <processFrameOLD+0xd8>
8000c1bc:	00158593          	addi	x11,x11,1
8000c1c0:	01059593          	slli	x11,x11,0x10
8000c1c4:	00a6a023          	sw	x10,0(x13)
8000c1c8:	0105d593          	srli	x11,x11,0x10
8000c1cc:	00400513          	li	x10,4
8000c1d0:	f55ff06f          	j	8000c124 <processFrameOLD+0x48>
8000c1d4:	00856513          	ori	x10,x10,8
8000c1d8:	0006a783          	lw	x15,0(x13)
8000c1dc:	fe07cee3          	bltz	x15,8000c1d8 <processFrameOLD+0xfc>
8000c1e0:	00158593          	addi	x11,x11,1
8000c1e4:	01059593          	slli	x11,x11,0x10
8000c1e8:	00a6a023          	sw	x10,0(x13)
8000c1ec:	0105d593          	srli	x11,x11,0x10
8000c1f0:	00400513          	li	x10,4
8000c1f4:	f31ff06f          	j	8000c124 <processFrameOLD+0x48>
8000c1f8:	00866613          	ori	x12,x12,8
8000c1fc:	0006a783          	lw	x15,0(x13)
8000c200:	fe07cee3          	bltz	x15,8000c1fc <processFrameOLD+0x120>
8000c204:	00158593          	addi	x11,x11,1
8000c208:	01059593          	slli	x11,x11,0x10
8000c20c:	00c6a023          	sw	x12,0(x13)
8000c210:	0105d593          	srli	x11,x11,0x10
8000c214:	00150513          	addi	x10,x10,1
8000c218:	f3159ee3          	bne	x11,x17,8000c154 <processFrameOLD+0x78>
8000c21c:	f69ff06f          	j	8000c184 <processFrameOLD+0xa8>

8000c220 <processFrame>:
8000c220:	000097b7          	lui	x15,0x9
8000c224:	74178793          	addi	x15,x15,1857 # 9741 <_start-0x800028bf>
8000c228:	14150613          	addi	x12,x10,321
8000c22c:	00f50533          	add	x10,x10,x15
8000c230:	000027b7          	lui	x15,0x2
8000c234:	ea060fa3          	sb	x0,-321(x12)
8000c238:	ec060693          	addi	x13,x12,-320
8000c23c:	00e7c703          	lbu	x14,14(x15) # 200e <_start-0x80009ff2>
8000c240:	00177713          	andi	x14,x14,1
8000c244:	fe071ce3          	bnez	x14,8000c23c <processFrame+0x1c>
8000c248:	00e7c703          	lbu	x14,14(x15)
8000c24c:	00177713          	andi	x14,x14,1
8000c250:	fe070ce3          	beqz	x14,8000c248 <processFrame+0x28>
8000c254:	00c7c703          	lbu	x14,12(x15)
8000c258:	00e68023          	sb	x14,0(x13)
8000c25c:	00e7c703          	lbu	x14,14(x15)
8000c260:	00177713          	andi	x14,x14,1
8000c264:	fe071ce3          	bnez	x14,8000c25c <processFrame+0x3c>
8000c268:	00e7c703          	lbu	x14,14(x15)
8000c26c:	00177713          	andi	x14,x14,1
8000c270:	fe070ce3          	beqz	x14,8000c268 <processFrame+0x48>
8000c274:	00c7c703          	lbu	x14,12(x15)
8000c278:	00268693          	addi	x13,x13,2
8000c27c:	fee68fa3          	sb	x14,-1(x13)
8000c280:	fad61ee3          	bne	x12,x13,8000c23c <processFrame+0x1c>
8000c284:	14060613          	addi	x12,x12,320
8000c288:	faa616e3          	bne	x12,x10,8000c234 <processFrame+0x14>
8000c28c:	00008067          	ret

8000c290 <sendFrame>:
8000c290:	10013737          	lui	x14,0x10013
8000c294:	00072783          	lw	x15,0(x14) # 10013000 <_start-0x6fff9000>
8000c298:	fe07cee3          	bltz	x15,8000c294 <sendFrame+0x4>
8000c29c:	000095b7          	lui	x11,0x9
8000c2a0:	00072023          	sw	x0,0(x14)
8000c2a4:	00000693          	li	x13,0
8000c2a8:	100137b7          	lui	x15,0x10013
8000c2ac:	67858593          	addi	x11,x11,1656 # 9678 <_start-0x80002988>
8000c2b0:	00d50733          	add	x14,x10,x13
8000c2b4:	0016f613          	andi	x12,x13,1
8000c2b8:	00074703          	lbu	x14,0(x14)
8000c2bc:	02060063          	beqz	x12,8000c2dc <sendFrame+0x4c>
8000c2c0:	02176613          	ori	x12,x14,33
8000c2c4:	0007a703          	lw	x14,0(x15) # 10013000 <_start-0x6fff9000>
8000c2c8:	fe074ee3          	bltz	x14,8000c2c4 <sendFrame+0x34>
8000c2cc:	00c7a023          	sw	x12,0(x15)
8000c2d0:	00168693          	addi	x13,x13,1
8000c2d4:	fcb69ee3          	bne	x13,x11,8000c2b0 <sendFrame+0x20>
8000c2d8:	00008067          	ret
8000c2dc:	00876613          	ori	x12,x14,8
8000c2e0:	0007a703          	lw	x14,0(x15)
8000c2e4:	fe074ee3          	bltz	x14,8000c2e0 <sendFrame+0x50>
8000c2e8:	00c7a023          	sw	x12,0(x15)
8000c2ec:	00168693          	addi	x13,x13,1
8000c2f0:	fcb690e3          	bne	x13,x11,8000c2b0 <sendFrame+0x20>
8000c2f4:	fe5ff06f          	j	8000c2d8 <sendFrame+0x48>

8000c2f8 <I2C_init>:
8000c2f8:	ff010113          	addi	x2,x2,-16
8000c2fc:	00812423          	sw	x8,8(x2)
8000c300:	10015437          	lui	x8,0x10015
8000c304:	00840513          	addi	x10,x8,8 # 10015008 <_start-0x6fff6ff8>
8000c308:	00000593          	li	x11,0
8000c30c:	00112623          	sw	x1,12(x2)
8000c310:	d49ff0ef          	jal	x1,8000c058 <reg_write8>
8000c314:	01300593          	li	x11,19
8000c318:	10015537          	lui	x10,0x10015
8000c31c:	d3dff0ef          	jal	x1,8000c058 <reg_write8>
8000c320:	00440513          	addi	x10,x8,4
8000c324:	00000593          	li	x11,0
8000c328:	d31ff0ef          	jal	x1,8000c058 <reg_write8>
8000c32c:	00840513          	addi	x10,x8,8
8000c330:	00812403          	lw	x8,8(x2)
8000c334:	00c12083          	lw	x1,12(x2)
8000c338:	08000593          	li	x11,128
8000c33c:	01010113          	addi	x2,x2,16
8000c340:	d19ff06f          	j	8000c058 <reg_write8>

8000c344 <I2C_beginTransmission>:
8000c344:	ff010113          	addi	x2,x2,-16
8000c348:	00912223          	sw	x9,4(x2)
8000c34c:	100154b7          	lui	x9,0x10015
8000c350:	00812423          	sw	x8,8(x2)
8000c354:	01212023          	sw	x18,0(x2)
8000c358:	00112623          	sw	x1,12(x2)
8000c35c:	00050913          	mv	x18,x10
8000c360:	01048413          	addi	x8,x9,16 # 10015010 <_start-0x6fff6ff0>
8000c364:	00040513          	mv	x10,x8
8000c368:	cf9ff0ef          	jal	x1,8000c060 <reg_read8>
8000c36c:	00257513          	andi	x10,x10,2
8000c370:	fe051ae3          	bnez	x10,8000c364 <I2C_beginTransmission+0x20>
8000c374:	00191593          	slli	x11,x18,0x1
8000c378:	0fe5f593          	andi	x11,x11,254
8000c37c:	00c48513          	addi	x10,x9,12
8000c380:	cd9ff0ef          	jal	x1,8000c058 <reg_write8>
8000c384:	09000593          	li	x11,144
8000c388:	01048513          	addi	x10,x9,16
8000c38c:	10015437          	lui	x8,0x10015
8000c390:	cc9ff0ef          	jal	x1,8000c058 <reg_write8>
8000c394:	01040413          	addi	x8,x8,16 # 10015010 <_start-0x6fff6ff0>
8000c398:	00040513          	mv	x10,x8
8000c39c:	cc5ff0ef          	jal	x1,8000c060 <reg_read8>
8000c3a0:	00257513          	andi	x10,x10,2
8000c3a4:	fe051ae3          	bnez	x10,8000c398 <I2C_beginTransmission+0x54>
8000c3a8:	00c12083          	lw	x1,12(x2)
8000c3ac:	00812403          	lw	x8,8(x2)
8000c3b0:	00412483          	lw	x9,4(x2)
8000c3b4:	00012903          	lw	x18,0(x2)
8000c3b8:	01010113          	addi	x2,x2,16
8000c3bc:	00008067          	ret

8000c3c0 <I2C_write>:
8000c3c0:	fe010113          	addi	x2,x2,-32
8000c3c4:	01212823          	sw	x18,16(x2)
8000c3c8:	10015937          	lui	x18,0x10015
8000c3cc:	00812c23          	sw	x8,24(x2)
8000c3d0:	00912a23          	sw	x9,20(x2)
8000c3d4:	01312623          	sw	x19,12(x2)
8000c3d8:	00112e23          	sw	x1,28(x2)
8000c3dc:	00050993          	mv	x19,x10
8000c3e0:	00058493          	mv	x9,x11
8000c3e4:	01090413          	addi	x8,x18,16 # 10015010 <_start-0x6fff6ff0>
8000c3e8:	00040513          	mv	x10,x8
8000c3ec:	c75ff0ef          	jal	x1,8000c060 <reg_read8>
8000c3f0:	00257513          	andi	x10,x10,2
8000c3f4:	fe051ae3          	bnez	x10,8000c3e8 <I2C_write+0x28>
8000c3f8:	00098593          	mv	x11,x19
8000c3fc:	00c90513          	addi	x10,x18,12
8000c400:	c59ff0ef          	jal	x1,8000c058 <reg_write8>
8000c404:	00649593          	slli	x11,x9,0x6
8000c408:	0105e593          	ori	x11,x11,16
8000c40c:	0d05f593          	andi	x11,x11,208
8000c410:	01090513          	addi	x10,x18,16
8000c414:	10015437          	lui	x8,0x10015
8000c418:	c41ff0ef          	jal	x1,8000c058 <reg_write8>
8000c41c:	01040413          	addi	x8,x8,16 # 10015010 <_start-0x6fff6ff0>
8000c420:	00040513          	mv	x10,x8
8000c424:	c3dff0ef          	jal	x1,8000c060 <reg_read8>
8000c428:	00257513          	andi	x10,x10,2
8000c42c:	fe051ae3          	bnez	x10,8000c420 <I2C_write+0x60>
8000c430:	01c12083          	lw	x1,28(x2)
8000c434:	01812403          	lw	x8,24(x2)
8000c438:	01412483          	lw	x9,20(x2)
8000c43c:	01012903          	lw	x18,16(x2)
8000c440:	00c12983          	lw	x19,12(x2)
8000c444:	02010113          	addi	x2,x2,32
8000c448:	00008067          	ret

8000c44c <I2C_read>:
8000c44c:	ff010113          	addi	x2,x2,-16
8000c450:	01212023          	sw	x18,0(x2)
8000c454:	10015937          	lui	x18,0x10015
8000c458:	00812423          	sw	x8,8(x2)
8000c45c:	00912223          	sw	x9,4(x2)
8000c460:	00112623          	sw	x1,12(x2)
8000c464:	00050493          	mv	x9,x10
8000c468:	01090413          	addi	x8,x18,16 # 10015010 <_start-0x6fff6ff0>
8000c46c:	00040513          	mv	x10,x8
8000c470:	bf1ff0ef          	jal	x1,8000c060 <reg_read8>
8000c474:	00257513          	andi	x10,x10,2
8000c478:	fe051ae3          	bnez	x10,8000c46c <I2C_read+0x20>
8000c47c:	00149593          	slli	x11,x9,0x1
8000c480:	0015e593          	ori	x11,x11,1
8000c484:	0ff5f593          	andi	x11,x11,255
8000c488:	00c90513          	addi	x10,x18,12
8000c48c:	bcdff0ef          	jal	x1,8000c058 <reg_write8>
8000c490:	09000593          	li	x11,144
8000c494:	01090513          	addi	x10,x18,16
8000c498:	100154b7          	lui	x9,0x10015
8000c49c:	bbdff0ef          	jal	x1,8000c058 <reg_write8>
8000c4a0:	01048413          	addi	x8,x9,16 # 10015010 <_start-0x6fff6ff0>
8000c4a4:	00040513          	mv	x10,x8
8000c4a8:	bb9ff0ef          	jal	x1,8000c060 <reg_read8>
8000c4ac:	00257513          	andi	x10,x10,2
8000c4b0:	fe051ae3          	bnez	x10,8000c4a4 <I2C_read+0x58>
8000c4b4:	01048513          	addi	x10,x9,16
8000c4b8:	06800593          	li	x11,104
8000c4bc:	100154b7          	lui	x9,0x10015
8000c4c0:	b99ff0ef          	jal	x1,8000c058 <reg_write8>
8000c4c4:	01048413          	addi	x8,x9,16 # 10015010 <_start-0x6fff6ff0>
8000c4c8:	00040513          	mv	x10,x8
8000c4cc:	b95ff0ef          	jal	x1,8000c060 <reg_read8>
8000c4d0:	00257513          	andi	x10,x10,2
8000c4d4:	fe051ae3          	bnez	x10,8000c4c8 <I2C_read+0x7c>
8000c4d8:	00812403          	lw	x8,8(x2)
8000c4dc:	00c12083          	lw	x1,12(x2)
8000c4e0:	00012903          	lw	x18,0(x2)
8000c4e4:	00c48513          	addi	x10,x9,12
8000c4e8:	00412483          	lw	x9,4(x2)
8000c4ec:	01010113          	addi	x2,x2,16
8000c4f0:	b71ff06f          	j	8000c060 <reg_read8>

Disassembly of section .text.startup:

8000c4f4 <main>:
8000c4f4:	97010113          	addi	x2,x2,-1680
8000c4f8:	ffff7337          	lui	x6,0xffff7
8000c4fc:	000097b7          	lui	x15,0x9
8000c500:	68812423          	sw	x8,1672(x2)
8000c504:	68912223          	sw	x9,1668(x2)
8000c508:	68112623          	sw	x1,1676(x2)
8000c50c:	ffff74b7          	lui	x9,0xffff7
8000c510:	00610133          	add	x2,x2,x6
8000c514:	68078793          	addi	x15,x15,1664 # 9680 <_start-0x80002980>
8000c518:	00002437          	lui	x8,0x2
8000c51c:	98848493          	addi	x9,x9,-1656 # ffff6988 <main+0x7ffea494>
8000c520:	002787b3          	add	x15,x15,x2
8000c524:	00d40413          	addi	x8,x8,13 # 200d <_start-0x80009ff3>
8000c528:	009784b3          	add	x9,x15,x9
8000c52c:	00040513          	mv	x10,x8
8000c530:	b31ff0ef          	jal	x1,8000c060 <reg_read8>
8000c534:	fe050ce3          	beqz	x10,8000c52c <main+0x38>
8000c538:	00048513          	mv	x10,x9
8000c53c:	ce5ff0ef          	jal	x1,8000c220 <processFrame>
8000c540:	00048513          	mv	x10,x9
8000c544:	d4dff0ef          	jal	x1,8000c290 <sendFrame>
8000c548:	fe5ff06f          	j	8000c52c <main+0x38>

Disassembly of section .comment:

00000000 <.comment>:
   0:	3a434347          	fmsub.d	f6,f6,f4,f7,rmm
   4:	2820                	fld	f8,80(x8)
   6:	69466953          	0x69466953
   a:	6576                	flw	f10,92(x2)
   c:	4720                	lw	x8,72(x14)
   e:	38204343          	fmadd.s	f6,f0,f2,f7,rmm
  12:	322e                	fld	f4,232(x2)
  14:	302e                	fld	f0,232(x2)
  16:	322d                	jal	fffff940 <main+0x7fff344c>
  18:	3130                	fld	f12,96(x10)
  1a:	2e39                	jal	338 <_start-0x8000bcc8>
  1c:	3530                	fld	f12,104(x10)
  1e:	332e                	fld	f6,232(x2)
  20:	2029                	jal	2a <_start-0x8000bfd6>
  22:	2e38                	fld	f14,88(x12)
  24:	2e32                	fld	f28,264(x2)
  26:	0030                	addi	x12,x2,8

Disassembly of section .riscv.attributes:

00000000 <.riscv.attributes>:
   0:	1941                	addi	x18,x18,-16
   2:	0000                	unimp
   4:	7200                	flw	f8,32(x12)
   6:	7369                	lui	x6,0xffffa
   8:	01007663          	bgeu	x0,x16,14 <_start-0x8000bfec>
   c:	0000000f          	fence	unknown,unknown
  10:	7205                	lui	x4,0xfffe1
  12:	3376                	fld	f6,376(x2)
  14:	6932                	flw	f18,12(x2)
  16:	7032                	flw	f0,44(x2)
  18:	0030                	addi	x12,x2,8
